; Function Attrs: nofree norecurse nosync nounwind memory(argmem: readwrite) uwtable
define void @BZ2_hbCreateDecodeTables(ptr noundef captures(none) %0, ptr noundef captures(none) %1, ptr noundef writeonly captures(none) %2, ptr noundef readonly captures(none) %3, i32 noundef %4, i32 noundef %5, i32 noundef %6) local_unnamed_addr #3 {
  %.not72 = icmp sgt i32 %4, %5
  br i1 %.not72, label %.preheader68, label %.preheader69.lr.ph

.preheader69.lr.ph:                               ; preds = %7
  %8 = icmp sgt i32 %6, 0
  br i1 %8, label %.preheader69.us.preheader, label %.preheader68.thread

.preheader68.thread:                              ; preds = %.preheader69.lr.ph
  tail call void @llvm.memset.p0.i64(ptr noundef nonnull align 4 dereferenceable(92) %1, i8 0, i64 92, i1 false), !tbaa !3
  br label %.preheader66

.preheader69.us.preheader:                        ; preds = %.preheader69.lr.ph
  %wide.trip.count = zext nneg i32 %6 to i64
  br label %.preheader69.us

.preheader69.us:                                  ; preds = %.preheader69.us.preheader, %._crit_edge.us
  %.05774.us = phi i32 [ %20, %._crit_edge.us ], [ %4, %.preheader69.us.preheader ]
  %.05873.us = phi i32 [ %.260.us, %._crit_edge.us ], [ 0, %.preheader69.us.preheader ]
  br label %9

9:                                                ; preds = %.preheader69.us, %19
  %indvars.iv = phi i64 [ 0, %.preheader69.us ], [ %indvars.iv.next, %19 ]
  %.15970.us = phi i32 [ %.05873.us, %.preheader69.us ], [ %.260.us, %19 ]
  %10 = getelementptr inbounds nuw i8, ptr %3, i64 %indvars.iv
  %11 = load i8, ptr %10, align 1, !tbaa !14
  %12 = zext i8 %11 to i32
  %13 = icmp eq i32 %.05774.us, %12
  br i1 %13, label %14, label %19

14:                                               ; preds = %9
  %15 = sext i32 %.15970.us to i64
  %16 = getelementptr inbounds i32, ptr %2, i64 %15
  %17 = trunc nuw nsw i64 %indvars.iv to i32
  store i32 %17, ptr %16, align 4, !tbaa !3
  %18 = add nsw i32 %.15970.us, 1
  br label %19

19:                                               ; preds = %14, %9
  %.260.us = phi i32 [ %18, %14 ], [ %.15970.us, %9 ]
  %indvars.iv.next = add nuw nsw i64 %indvars.iv, 1
  %exitcond.not = icmp eq i64 %indvars.iv.next, %wide.trip.count
  br i1 %exitcond.not, label %._crit_edge.us, label %9, !llvm.loop !19

._crit_edge.us:                                   ; preds = %19
  %20 = add i32 %.05774.us, 1
  %exitcond88.not = icmp eq i32 %.05774.us, %5
  br i1 %exitcond88.not, label %.preheader68, label %.preheader69.us, !llvm.loop !20

.preheader68:                                     ; preds = %._crit_edge.us, %7
  tail call void @llvm.memset.p0.i64(ptr noundef nonnull align 4 dereferenceable(92) %1, i8 0, i64 92, i1 false), !tbaa !3
  %invariant.gep = getelementptr inbounds nuw i8, ptr %1, i64 4
  %21 = icmp sgt i32 %6, 0
  br i1 %21, label %.lr.ph.preheader, label %.preheader66

.lr.ph.preheader:                                 ; preds = %.preheader68
  %wide.trip.count95 = zext nneg i32 %6 to i64
  br label %.lr.ph

.preheader66:                                     ; preds = %.lr.ph, %.preheader68.thread, %.preheader68
  %load_initial = load i32, ptr %1, align 4
  br label %27

.lr.ph:                                           ; preds = %.lr.ph.preheader, %.lr.ph
  %indvars.iv92 = phi i64 [ 0, %.lr.ph.preheader ], [ %indvars.iv.next93, %.lr.ph ]
  %22 = getelementptr inbounds nuw i8, ptr %3, i64 %indvars.iv92
  %23 = load i8, ptr %22, align 1, !tbaa !14
  %24 = zext i8 %23 to i64
  %gep = getelementptr inbounds nuw i32, ptr %invariant.gep, i64 %24
  %25 = load i32, ptr %gep, align 4, !tbaa !3
  %26 = add nsw i32 %25, 1
  store i32 %26, ptr %gep, align 4, !tbaa !3
  %indvars.iv.next93 = add nuw nsw i64 %indvars.iv92, 1
  %exitcond96.not = icmp eq i64 %indvars.iv.next93, %wide.trip.count95
  br i1 %exitcond96.not, label %.preheader66, label %.lr.ph, !llvm.loop !21

27:                                               ; preds = %.preheader66, %27
  %store_forwarded = phi i32 [ %load_initial, %.preheader66 ], [ %30, %27 ]
  %indvars.iv97 = phi i64 [ 1, %.preheader66 ], [ %indvars.iv.next98, %27 ]
  %28 = getelementptr i32, ptr %1, i64 %indvars.iv97
  %29 = load i32, ptr %28, align 4, !tbaa !3
  %30 = add nsw i32 %29, %store_forwarded
  store i32 %30, ptr %28, align 4, !tbaa !3
  %indvars.iv.next98 = add nuw nsw i64 %indvars.iv97, 1
  %exitcond100.not = icmp eq i64 %indvars.iv.next98, 23
  br i1 %exitcond100.not, label %.preheader65.preheader, label %27, !llvm.loop !22

.preheader65.preheader:                           ; preds = %27
  tail call void @llvm.memset.p0.i64(ptr noundef nonnull align 4 dereferenceable(92) %0, i8 0, i64 92, i1 false), !tbaa !3
  br i1 %.not72, label %.preheader, label %.lr.ph82.preheader

.lr.ph82.preheader:                               ; preds = %.preheader65.preheader
  %31 = sext i32 %4 to i64
  %32 = add i32 %5, 1
  br label %.lr.ph82

.preheader:                                       ; preds = %.lr.ph82, %.preheader65.preheader
  %.not63.not83 = icmp slt i32 %4, %5
  br i1 %.not63.not83, label %.lr.ph85.preheader, label %._crit_edge

.lr.ph85.preheader:                               ; preds = %.preheader
  %33 = sext i32 %4 to i64
  %wide.trip.count111 = sext i32 %5 to i64
  br label %.lr.ph85

.lr.ph82:                                         ; preds = %.lr.ph82.preheader, %.lr.ph82
  %indvars.iv104 = phi i64 [ %31, %.lr.ph82.preheader ], [ %indvars.iv.next105, %.lr.ph82 ]
  %.081 = phi i32 [ 0, %.lr.ph82.preheader ], [ %42, %.lr.ph82 ]
  %indvars.iv.next105 = add nsw i64 %indvars.iv104, 1
  %34 = getelementptr inbounds i32, ptr %1, i64 %indvars.iv.next105
  %35 = load i32, ptr %34, align 4, !tbaa !3
  %36 = getelementptr inbounds i32, ptr %1, i64 %indvars.iv104
  %37 = load i32, ptr %36, align 4, !tbaa !3
  %38 = sub nsw i32 %35, %37
  %39 = add nsw i32 %38, %.081
  %40 = add nsw i32 %39, -1
  %41 = getelementptr inbounds i32, ptr %0, i64 %indvars.iv104
  store i32 %40, ptr %41, align 4, !tbaa !3
  %42 = shl i32 %39, 1
  %lftr.wideiv = trunc i64 %indvars.iv.next105 to i32
  %exitcond107.not = icmp eq i32 %32, %lftr.wideiv
  br i1 %exitcond107.not, label %.preheader, label %.lr.ph82, !llvm.loop !23

.lr.ph85:                                         ; preds = %.lr.ph85.preheader, %.lr.ph85
  %indvars.iv108 = phi i64 [ %33, %.lr.ph85.preheader ], [ %indvars.iv.next109, %.lr.ph85 ]
  %indvars.iv.next109 = add nsw i64 %indvars.iv108, 1
  %43 = getelementptr inbounds i32, ptr %0, i64 %indvars.iv108
  %44 = load i32, ptr %43, align 4, !tbaa !3
  %45 = shl i32 %44, 1
  %46 = add i32 %45, 2
  %47 = getelementptr inbounds i32, ptr %1, i64 %indvars.iv.next109
  %48 = load i32, ptr %47, align 4, !tbaa !3
  %49 = sub i32 %46, %48
  store i32 %49, ptr %47, align 4, !tbaa !3
  %exitcond112.not = icmp eq i64 %indvars.iv.next109, %wide.trip.count111
  br i1 %exitcond112.not, label %._crit_edge, label %.lr.ph85, !llvm.loop !24

._crit_edge:                                      ; preds = %.lr.ph85, %.preheader
  ret void
}